; Function Attrs: nounwind uwtable
define ptr @l_Lean_Loop_forIn_loop___at_Std_Condvar_waitUntil___spec__1___rarg(ptr noundef %0, ptr noundef %1, ptr noundef %2, ptr noundef %3, ptr noundef %4, ptr noundef %5, ptr readnone captures(none) %6) local_unnamed_addr #0 {
  %8 = getelementptr inbounds nuw i8, ptr %0, i64 16
  %9 = load ptr, ptr %8, align 8, !tbaa !10
  %10 = ptrtoint ptr %9 to i64
  %11 = and i64 %10, 1
  %.not = icmp eq i64 %11, 0
  br i1 %.not, label %12, label %lean_inc.exit44

12:                                               ; preds = %7
  %.val.i = load i32, ptr %9, align 4, !tbaa !4
  %13 = icmp sgt i32 %.val.i, 0
  br i1 %13, label %14, label %16, !prof !9

14:                                               ; preds = %12
  %15 = add nuw i32 %.val.i, 1
  store i32 %15, ptr %9, align 4, !tbaa !4
  br label %lean_inc.exit44

16:                                               ; preds = %12
  %.not.i = icmp eq i32 %.val.i, 0
  br i1 %.not.i, label %lean_inc.exit44, label %17

17:                                               ; preds = %16
  tail call void @lean_inc_ref_cold(ptr noundef nonnull %9) #3
  br label %lean_inc.exit44

lean_inc.exit44:                                  ; preds = %17, %16, %14, %7
  %18 = ptrtoint ptr %5 to i64
  %19 = and i64 %18, 1
  %.not67 = icmp eq i64 %19, 0
  br i1 %.not67, label %20, label %lean_inc.exit43

20:                                               ; preds = %lean_inc.exit44
  %.val.i45 = load i32, ptr %5, align 4, !tbaa !4
  %21 = icmp sgt i32 %.val.i45, 0
  br i1 %21, label %22, label %24, !prof !9

22:                                               ; preds = %20
  %23 = add nuw i32 %.val.i45, 1
  store i32 %23, ptr %5, align 4, !tbaa !4
  br label %lean_inc.exit43

24:                                               ; preds = %20
  %.not.i46 = icmp eq i32 %.val.i45, 0
  br i1 %.not.i46, label %lean_inc.exit43, label %25

25:                                               ; preds = %24
  tail call void @lean_inc_ref_cold(ptr noundef nonnull %5) #3
  br label %lean_inc.exit43

lean_inc.exit43:                                  ; preds = %25, %24, %22, %lean_inc.exit44
  %26 = ptrtoint ptr %0 to i64
  %27 = and i64 %26, 1
  %.not68 = icmp eq i64 %27, 0
  br i1 %.not68, label %28, label %lean_inc.exit42

28:                                               ; preds = %lean_inc.exit43
  %.val.i48 = load i32, ptr %0, align 4, !tbaa !4
  %29 = icmp sgt i32 %.val.i48, 0
  br i1 %29, label %30, label %32, !prof !9

30:                                               ; preds = %28
  %31 = add nuw i32 %.val.i48, 1
  store i32 %31, ptr %0, align 4, !tbaa !4
  br label %lean_inc.exit42

32:                                               ; preds = %28
  %.not.i49 = icmp eq i32 %.val.i48, 0
  br i1 %.not.i49, label %lean_inc.exit42, label %33

33:                                               ; preds = %32
  tail call void @lean_inc_ref_cold(ptr noundef nonnull %0) #3
  br label %lean_inc.exit42

lean_inc.exit42:                                  ; preds = %33, %32, %30, %lean_inc.exit43
  %34 = ptrtoint ptr %1 to i64
  %35 = and i64 %34, 1
  %.not69 = icmp eq i64 %35, 0
  br i1 %.not69, label %36, label %lean_inc.exit41

36:                                               ; preds = %lean_inc.exit42
  %.val.i51 = load i32, ptr %1, align 4, !tbaa !4
  %37 = icmp sgt i32 %.val.i51, 0
  br i1 %37, label %38, label %40, !prof !9

38:                                               ; preds = %36
  %39 = add nuw i32 %.val.i51, 1
  store i32 %39, ptr %1, align 4, !tbaa !4
  br label %lean_inc.exit41

40:                                               ; preds = %36
  %.not.i52 = icmp eq i32 %.val.i51, 0
  br i1 %.not.i52, label %lean_inc.exit41, label %41

41:                                               ; preds = %40
  tail call void @lean_inc_ref_cold(ptr noundef nonnull %1) #3
  br label %lean_inc.exit41

lean_inc.exit41:                                  ; preds = %41, %40, %38, %lean_inc.exit42
  %42 = ptrtoint ptr %3 to i64
  %43 = and i64 %42, 1
  %.not70 = icmp eq i64 %43, 0
  br i1 %.not70, label %44, label %lean_inc.exit40

44:                                               ; preds = %lean_inc.exit41
  %.val.i54 = load i32, ptr %3, align 4, !tbaa !4
  %45 = icmp sgt i32 %.val.i54, 0
  br i1 %45, label %46, label %48, !prof !9

46:                                               ; preds = %44
  %47 = add nuw i32 %.val.i54, 1
  store i32 %47, ptr %3, align 4, !tbaa !4
  br label %lean_inc.exit40

48:                                               ; preds = %44
  %.not.i55 = icmp eq i32 %.val.i54, 0
  br i1 %.not.i55, label %lean_inc.exit40, label %49

49:                                               ; preds = %48
  tail call void @lean_inc_ref_cold(ptr noundef nonnull %3) #3
  br label %lean_inc.exit40

lean_inc.exit40:                                  ; preds = %49, %48, %46, %lean_inc.exit41
  %50 = ptrtoint ptr %2 to i64
  %51 = and i64 %50, 1
  %.not71 = icmp eq i64 %51, 0
  br i1 %.not71, label %52, label %lean_inc.exit39

52:                                               ; preds = %lean_inc.exit40
  %.val.i57 = load i32, ptr %2, align 4, !tbaa !4
  %53 = icmp sgt i32 %.val.i57, 0
  br i1 %53, label %54, label %56, !prof !9

54:                                               ; preds = %52
  %55 = add nuw i32 %.val.i57, 1
  store i32 %55, ptr %2, align 4, !tbaa !4
  br label %lean_inc.exit39

56:                                               ; preds = %52
  %.not.i58 = icmp eq i32 %.val.i57, 0
  br i1 %.not.i58, label %lean_inc.exit39, label %57

57:                                               ; preds = %56
  tail call void @lean_inc_ref_cold(ptr noundef nonnull %2) #3
  br label %lean_inc.exit39

lean_inc.exit39:                                  ; preds = %57, %56, %54, %lean_inc.exit40
  tail call void @lean_inc_heartbeat() #3
  %58 = tail call noalias ptr @mi_malloc_small(i64 noundef 64) #3
  %59 = icmp eq ptr %58, null
  br i1 %59, label %60, label %lean_alloc_closure.exit

60:                                               ; preds = %lean_inc.exit39
  tail call void @lean_internal_panic_out_of_memory() #4
  unreachable

lean_alloc_closure.exit:                          ; preds = %lean_inc.exit39
  %61 = getelementptr inbounds nuw i8, ptr %58, i64 4
  store i32 1, ptr %58, align 4, !tbaa !4
  store i32 -184549312, ptr %61, align 4
  %62 = getelementptr inbounds nuw i8, ptr %58, i64 8
  store ptr @l_Lean_Loop_forIn_loop___at_Std_Condvar_waitUntil___spec__1___rarg___lambda__2___boxed, ptr %62, align 8, !tbaa !10
  %63 = getelementptr inbounds nuw i8, ptr %58, i64 16
  store i16 6, ptr %63, align 8, !tbaa !12
  %64 = getelementptr inbounds nuw i8, ptr %58, i64 18
  store i16 5, ptr %64, align 2, !tbaa !12
  %65 = getelementptr inbounds nuw i8, ptr %58, i64 24
  store ptr %2, ptr %65, align 8, !tbaa !10
  %66 = getelementptr inbounds nuw i8, ptr %58, i64 32
  store ptr %3, ptr %66, align 8, !tbaa !10
  %67 = getelementptr inbounds nuw i8, ptr %58, i64 40
  store ptr %1, ptr %67, align 8, !tbaa !10
  %68 = getelementptr inbounds nuw i8, ptr %58, i64 48
  store ptr %0, ptr %68, align 8, !tbaa !10
  %69 = getelementptr inbounds nuw i8, ptr %58, i64 56
  store ptr %5, ptr %69, align 8, !tbaa !10
  br i1 %.not67, label %70, label %lean_inc.exit38

70:                                               ; preds = %lean_alloc_closure.exit
  %.val.i60 = load i32, ptr %5, align 4, !tbaa !4
  %71 = icmp sgt i32 %.val.i60, 0
  br i1 %71, label %72, label %74, !prof !9

72:                                               ; preds = %70
  %73 = add nuw i32 %.val.i60, 1
  store i32 %73, ptr %5, align 4, !tbaa !4
  br label %lean_inc.exit38

74:                                               ; preds = %70
  %.not.i61 = icmp eq i32 %.val.i60, 0
  br i1 %.not.i61, label %lean_inc.exit38, label %75

75:                                               ; preds = %74
  tail call void @lean_inc_ref_cold(ptr noundef nonnull %5) #3
  br label %lean_inc.exit38

lean_inc.exit38:                                  ; preds = %75, %74, %72, %lean_alloc_closure.exit
  %76 = ptrtoint ptr %4 to i64
  %77 = and i64 %76, 1
  %.not72 = icmp eq i64 %77, 0
  br i1 %.not72, label %78, label %lean_inc.exit

78:                                               ; preds = %lean_inc.exit38
  %.val.i63 = load i32, ptr %4, align 4, !tbaa !4
  %79 = icmp sgt i32 %.val.i63, 0
  br i1 %79, label %80, label %82, !prof !9

80:                                               ; preds = %78
  %81 = add nuw i32 %.val.i63, 1
  store i32 %81, ptr %4, align 4, !tbaa !4
  br label %lean_inc.exit

82:                                               ; preds = %78
  %.not.i64 = icmp eq i32 %.val.i63, 0
  br i1 %.not.i64, label %lean_inc.exit, label %83

83:                                               ; preds = %82
  tail call void @lean_inc_ref_cold(ptr noundef nonnull %4) #3
  br label %lean_inc.exit

lean_inc.exit:                                    ; preds = %83, %82, %80, %lean_inc.exit38
  %84 = tail call ptr @lean_apply_4(ptr noundef %5, ptr noundef nonnull inttoptr (i64 1 to ptr), ptr noundef nonnull inttoptr (i64 1 to ptr), ptr noundef %4, ptr noundef nonnull %58) #3
  tail call void @lean_inc_heartbeat() #3
  %85 = tail call noalias ptr @mi_malloc_small(i64 noundef 72) #3
  %86 = icmp eq ptr %85, null
  br i1 %86, label %87, label %lean_alloc_closure.exit66

87:                                               ; preds = %lean_inc.exit
  tail call void @lean_internal_panic_out_of_memory() #4
  unreachable

lean_alloc_closure.exit66:                        ; preds = %lean_inc.exit
  %88 = getelementptr inbounds nuw i8, ptr %85, i64 4
  store i32 1, ptr %85, align 4, !tbaa !4
  store i32 -184549304, ptr %88, align 4
  %89 = getelementptr inbounds nuw i8, ptr %85, i64 8
  store ptr @l_Lean_Loop_forIn_loop___at_Std_Condvar_waitUntil___spec__1___rarg___lambda__3, ptr %89, align 8, !tbaa !10
  %90 = getelementptr inbounds nuw i8, ptr %85, i64 16
  store i16 7, ptr %90, align 8, !tbaa !12
  %91 = getelementptr inbounds nuw i8, ptr %85, i64 18
  store i16 6, ptr %91, align 2, !tbaa !12
  %92 = getelementptr inbounds nuw i8, ptr %85, i64 24
  store ptr %0, ptr %92, align 8, !tbaa !10
  %93 = getelementptr inbounds nuw i8, ptr %85, i64 32
  store ptr %1, ptr %93, align 8, !tbaa !10
  %94 = getelementptr inbounds nuw i8, ptr %85, i64 40
  store ptr %2, ptr %94, align 8, !tbaa !10
  %95 = getelementptr inbounds nuw i8, ptr %85, i64 48
  store ptr %3, ptr %95, align 8, !tbaa !10
  %96 = getelementptr inbounds nuw i8, ptr %85, i64 56
  store ptr %4, ptr %96, align 8, !tbaa !10
  %97 = getelementptr inbounds nuw i8, ptr %85, i64 64
  store ptr %5, ptr %97, align 8, !tbaa !10
  %98 = tail call ptr @lean_apply_4(ptr noundef %9, ptr noundef nonnull inttoptr (i64 1 to ptr), ptr noundef nonnull inttoptr (i64 1 to ptr), ptr noundef %84, ptr noundef nonnull %85) #3
  ret ptr %98
}